target datalayout = "e-m:e-p270:32:32-p271:32:32-p272:64:64-i64:64-i128:128-f80:128-n8:16:32:64-S128"
target triple = "x86_64-pc-linux-gnu"

%struct.H5FL_reg_head_t = type { i8, i32, i32, ptr, i64, ptr }

@.str.1 = private unnamed_addr constant [105 x i8] c"generated/home/dtcxzyw/WorkSpace/Projects/compilers/llvm-opt-benchmark/bench/hdf5/hdf5/src/H5Orefcount.c\00", align 1
@__func__.H5O__refcount_decode = private unnamed_addr constant [21 x i8] c"H5O__refcount_decode\00", align 1
@H5E_OHDR_g = external global i64, align 8
@H5E_OVERFLOW_g = external global i64, align 8
@.str.2 = private unnamed_addr constant [43 x i8] c"ran off end of input buffer while decoding\00", align 1
@H5E_CANTLOAD_g = external global i64, align 8
@.str.3 = private unnamed_addr constant [31 x i8] c"bad version number for message\00", align 1
@H5_H5O_refcount_t_reg_free_list = internal global %struct.H5FL_reg_head_t { i8 0, i32 0, i32 0, ptr @.str.5, i64 4, ptr null }, align 8
@H5E_RESOURCE_g = external global i64, align 8
@H5E_NOSPACE_g = external global i64, align 8
@.str.4 = private unnamed_addr constant [25 x i8] c"memory allocation failed\00", align 1

; Function Attrs: nounwind uwtable
define internal ptr @H5O__refcount_decode(ptr noundef %0, ptr noundef %1, i32 noundef %2, ptr noundef %3, i64 noundef %4, ptr noundef %5) #0 {
  %7 = alloca ptr, align 8
  %8 = alloca ptr, align 8
  %9 = alloca i32, align 4
  %10 = alloca ptr, align 8
  %11 = alloca i64, align 8
  %12 = alloca ptr, align 8
  %13 = alloca ptr, align 8
  %14 = alloca ptr, align 8
  %15 = alloca ptr, align 8
  %16 = alloca i8, align 1
  store ptr %0, ptr %7, align 8
  store ptr %1, ptr %8, align 8
  store i32 %2, ptr %9, align 4
  store ptr %3, ptr %10, align 8
  store i64 %4, ptr %11, align 8
  store ptr %5, ptr %12, align 8
  store ptr null, ptr %13, align 8
  %17 = load ptr, ptr %12, align 8
  %18 = load i64, ptr %11, align 8
  %19 = getelementptr inbounds i8, ptr %17, i64 %18
  %20 = getelementptr inbounds i8, ptr %19, i64 -1
  store ptr %20, ptr %14, align 8
  store ptr null, ptr %15, align 8
  store i8 0, ptr %16, align 1
  %21 = load ptr, ptr %12, align 8
  %22 = load ptr, ptr %14, align 8
  %23 = icmp ugt ptr %21, %22
  br i1 %23, label %32, label %24

24:                                               ; preds = %6
  %25 = load ptr, ptr %14, align 8
  %26 = load ptr, ptr %12, align 8
  %27 = ptrtoint ptr %25 to i64
  %28 = ptrtoint ptr %26 to i64
  %29 = sub i64 %27, %28
  %30 = add nsw i64 %29, 1
  %31 = icmp ugt i64 1, %30
  br i1 %31, label %32, label %47

32:                                               ; preds = %24, %6
  br label %33

33:                                               ; preds = %32
  br label %34

34:                                               ; preds = %33
  br label %35

35:                                               ; preds = %34
  %36 = load i64, ptr @H5E_OHDR_g, align 8
  %37 = load i64, ptr @H5E_OVERFLOW_g, align 8
  %38 = call i32 (ptr, ptr, i32, i64, i64, ptr, ...) @H5E_printf_stack(ptr noundef @.str.1, ptr noundef @__func__.H5O__refcount_decode, i32 noundef 97, i64 noundef %36, i64 noundef %37, ptr noundef @.str.2)
  br label %39

39:                                               ; preds = %35
  store i8 1, ptr %16, align 1
  %40 = load i8, ptr %16, align 1
  %41 = trunc i8 %40 to i1
  %42 = zext i1 %41 to i8
  store i8 %42, ptr %16, align 1
  br label %43

43:                                               ; preds = %39
  br label %44

44:                                               ; preds = %43
  store ptr null, ptr %15, align 8
  br label %154

45:                                               ; No predecessors!
  br label %46

46:                                               ; preds = %45
  br label %47

47:                                               ; preds = %46, %24
  %48 = load ptr, ptr %12, align 8
  %49 = getelementptr inbounds i8, ptr %48, i32 1
  store ptr %49, ptr %12, align 8
  %50 = load i8, ptr %48, align 1
  %51 = zext i8 %50 to i32
  %52 = icmp ne i32 %51, 0
  br i1 %52, label %53, label %68

53:                                               ; preds = %47
  br label %54

54:                                               ; preds = %53
  br label %55

55:                                               ; preds = %54
  br label %56

56:                                               ; preds = %55
  %57 = load i64, ptr @H5E_OHDR_g, align 8
  %58 = load i64, ptr @H5E_CANTLOAD_g, align 8
  %59 = call i32 (ptr, ptr, i32, i64, i64, ptr, ...) @H5E_printf_stack(ptr noundef @.str.1, ptr noundef @__func__.H5O__refcount_decode, i32 noundef 99, i64 noundef %57, i64 noundef %58, ptr noundef @.str.3)
  br label %60

60:                                               ; preds = %56
  store i8 1, ptr %16, align 1
  %61 = load i8, ptr %16, align 1
  %62 = trunc i8 %61 to i1
  %63 = zext i1 %62 to i8
  store i8 %63, ptr %16, align 1
  br label %64

64:                                               ; preds = %60
  br label %65

65:                                               ; preds = %64
  store ptr null, ptr %15, align 8
  br label %154

66:                                               ; No predecessors!
  br label %67

67:                                               ; preds = %66
  br label %68

68:                                               ; preds = %67, %47
  %69 = call noalias ptr @H5FL_reg_malloc(ptr noundef @H5_H5O_refcount_t_reg_free_list)
  store ptr %69, ptr %13, align 8
  %70 = icmp eq ptr null, %69
  br i1 %70, label %71, label %86

71:                                               ; preds = %68
  br label %72

72:                                               ; preds = %71
  br label %73

73:                                               ; preds = %72
  br label %74

74:                                               ; preds = %73
  %75 = load i64, ptr @H5E_RESOURCE_g, align 8
  %76 = load i64, ptr @H5E_NOSPACE_g, align 8
  %77 = call i32 (ptr, ptr, i32, i64, i64, ptr, ...) @H5E_printf_stack(ptr noundef @.str.1, ptr noundef @__func__.H5O__refcount_decode, i32 noundef 103, i64 noundef %75, i64 noundef %76, ptr noundef @.str.4)
  br label %78

78:                                               ; preds = %74
  store i8 1, ptr %16, align 1
  %79 = load i8, ptr %16, align 1
  %80 = trunc i8 %79 to i1
  %81 = zext i1 %80 to i8
  store i8 %81, ptr %16, align 1
  br label %82

82:                                               ; preds = %78
  br label %83

83:                                               ; preds = %82
  store ptr null, ptr %15, align 8
  br label %154

84:                                               ; No predecessors!
  br label %85

85:                                               ; preds = %84
  br label %86

86:                                               ; preds = %85, %68
  %87 = load ptr, ptr %12, align 8
  %88 = load ptr, ptr %14, align 8
  %89 = icmp ugt ptr %87, %88
  br i1 %89, label %98, label %90

90:                                               ; preds = %86
  %91 = load ptr, ptr %14, align 8
  %92 = load ptr, ptr %12, align 8
  %93 = ptrtoint ptr %91 to i64
  %94 = ptrtoint ptr %92 to i64
  %95 = sub i64 %93, %94
  %96 = add nsw i64 %95, 1
  %97 = icmp ugt i64 4, %96
  br i1 %97, label %98, label %113

98:                                               ; preds = %90, %86
  br label %99

99:                                               ; preds = %98
  br label %100

100:                                              ; preds = %99
  br label %101

101:                                              ; preds = %100
  %102 = load i64, ptr @H5E_OHDR_g, align 8
  %103 = load i64, ptr @H5E_OVERFLOW_g, align 8
  %104 = call i32 (ptr, ptr, i32, i64, i64, ptr, ...) @H5E_printf_stack(ptr noundef @.str.1, ptr noundef @__func__.H5O__refcount_decode, i32 noundef 107, i64 noundef %102, i64 noundef %103, ptr noundef @.str.2)
  br label %105

105:                                              ; preds = %101
  store i8 1, ptr %16, align 1
  %106 = load i8, ptr %16, align 1
  %107 = trunc i8 %106 to i1
  %108 = zext i1 %107 to i8
  store i8 %108, ptr %16, align 1
  br label %109

109:                                              ; preds = %105
  br label %110

110:                                              ; preds = %109
  store ptr null, ptr %15, align 8
  br label %154

111:                                              ; No predecessors!
  br label %112

112:                                              ; preds = %111
  br label %113

113:                                              ; preds = %112, %90
  br label %114

114:                                              ; preds = %113
  %115 = load ptr, ptr %12, align 8
  %116 = load i8, ptr %115, align 1
  %117 = zext i8 %116 to i32
  %118 = and i32 %117, 255
  %119 = load ptr, ptr %13, align 8
  store i32 %118, ptr %119, align 4
  %120 = load ptr, ptr %12, align 8
  %121 = getelementptr inbounds i8, ptr %120, i32 1
  store ptr %121, ptr %12, align 8
  %122 = load ptr, ptr %12, align 8
  %123 = load i8, ptr %122, align 1
  %124 = zext i8 %123 to i32
  %125 = and i32 %124, 255
  %126 = shl i32 %125, 8
  %127 = load ptr, ptr %13, align 8
  %128 = load i32, ptr %127, align 4
  %129 = or i32 %128, %126
  store i32 %129, ptr %127, align 4
  %130 = load ptr, ptr %12, align 8
  %131 = getelementptr inbounds i8, ptr %130, i32 1
  store ptr %131, ptr %12, align 8
  %132 = load ptr, ptr %12, align 8
  %133 = load i8, ptr %132, align 1
  %134 = zext i8 %133 to i32
  %135 = and i32 %134, 255
  %136 = shl i32 %135, 16
  %137 = load ptr, ptr %13, align 8
  %138 = load i32, ptr %137, align 4
  %139 = or i32 %138, %136
  store i32 %139, ptr %137, align 4
  %140 = load ptr, ptr %12, align 8
  %141 = getelementptr inbounds i8, ptr %140, i32 1
  store ptr %141, ptr %12, align 8
  %142 = load ptr, ptr %12, align 8
  %143 = load i8, ptr %142, align 1
  %144 = zext i8 %143 to i32
  %145 = and i32 %144, 255
  %146 = shl i32 %145, 24
  %147 = load ptr, ptr %13, align 8
  %148 = load i32, ptr %147, align 4
  %149 = or i32 %148, %146
  store i32 %149, ptr %147, align 4
  %150 = load ptr, ptr %12, align 8
  %151 = getelementptr inbounds i8, ptr %150, i32 1
  store ptr %151, ptr %12, align 8
  br label %152

152:                                              ; preds = %114
  %153 = load ptr, ptr %13, align 8
  store ptr %153, ptr %15, align 8
  br label %154

154:                                              ; preds = %152, %110, %83, %65, %44
  %155 = load ptr, ptr %15, align 8
  %156 = icmp ne ptr %155, null
  br i1 %156, label %163, label %157

157:                                              ; preds = %154
  %158 = load ptr, ptr %13, align 8
  %159 = icmp ne ptr %158, null
  br i1 %159, label %160, label %163

160:                                              ; preds = %157
  %161 = load ptr, ptr %13, align 8
  %162 = call ptr @H5FL_reg_free(ptr noundef @H5_H5O_refcount_t_reg_free_list, ptr noundef %161)
  br label %163

163:                                              ; preds = %160, %157, %154
  %164 = load ptr, ptr %15, align 8
  ret ptr %164
}