; Function Attrs: nounwind uwtable
define internal ptr @H5O__refcount_decode(ptr nocapture readnone %0, ptr nocapture readnone %1, i32 %2, ptr nocapture readnone %3, i64 noundef %4, ptr noundef %5) #0 {
  %7 = getelementptr i8, ptr %5, i64 %4
  %.ptr37 = getelementptr i8, ptr %7, i64 -1
  %8 = icmp ult ptr %.ptr37, %5
  br i1 %8, label %14, label %9

9:                                                ; preds = %6
  %10 = ptrtoint ptr %.ptr37 to i64
  %11 = ptrtoint ptr %5 to i64
  %12 = sub i64 %10, %11
  %13 = icmp eq i64 %12, -1
  br i1 %13, label %14, label %18

14:                                               ; preds = %6, %9
  %15 = load i64, ptr @H5E_OHDR_g, align 8
  %16 = load i64, ptr @H5E_OVERFLOW_g, align 8
  %17 = tail call i32 (ptr, ptr, i32, i64, i64, ptr, ...) @H5E_printf_stack(ptr noundef nonnull @.str.1, ptr noundef nonnull @__func__.H5O__refcount_decode, i32 noundef 97, i64 noundef %15, i64 noundef %16, ptr noundef nonnull @.str.2) #7
  br label %.thread

18:                                               ; preds = %9
  %19 = getelementptr inbounds i8, ptr %5, i64 1
  %20 = load i8, ptr %5, align 1
  %.not = icmp eq i8 %20, 0
  br i1 %.not, label %25, label %21

21:                                               ; preds = %18
  %22 = load i64, ptr @H5E_OHDR_g, align 8
  %23 = load i64, ptr @H5E_CANTLOAD_g, align 8
  %24 = tail call i32 (ptr, ptr, i32, i64, i64, ptr, ...) @H5E_printf_stack(ptr noundef nonnull @.str.1, ptr noundef nonnull @__func__.H5O__refcount_decode, i32 noundef 99, i64 noundef %22, i64 noundef %23, ptr noundef nonnull @.str.3) #7
  br label %.thread

25:                                               ; preds = %18
  %26 = tail call noalias ptr @H5FL_reg_malloc(ptr noundef nonnull @H5_H5O_refcount_t_reg_free_list) #7
  %27 = icmp eq ptr %26, null
  br i1 %27, label %28, label %32

28:                                               ; preds = %25
  %29 = load i64, ptr @H5E_RESOURCE_g, align 8
  %30 = load i64, ptr @H5E_NOSPACE_g, align 8
  %31 = tail call i32 (ptr, ptr, i32, i64, i64, ptr, ...) @H5E_printf_stack(ptr noundef nonnull @.str.1, ptr noundef nonnull @__func__.H5O__refcount_decode, i32 noundef 103, i64 noundef %29, i64 noundef %30, ptr noundef nonnull @.str.4) #7
  br label %.thread

32:                                               ; preds = %25
  %33 = icmp slt i64 %4, 2
  br i1 %33, label %56, label %34

34:                                               ; preds = %32
  %35 = ptrtoint ptr %19 to i64
  %reass.sub = sub i64 %10, %35
  %36 = add i64 %reass.sub, 1
  %37 = icmp ult i64 %36, 4
  br i1 %37, label %56, label %38

38:                                               ; preds = %34
  %39 = load i8, ptr %19, align 1
  %40 = zext i8 %39 to i32
  %41 = getelementptr inbounds i8, ptr %5, i64 2
  %42 = load i8, ptr %41, align 1
  %43 = zext i8 %42 to i32
  %44 = shl nuw nsw i32 %43, 8
  %45 = or disjoint i32 %44, %40
  %46 = getelementptr inbounds i8, ptr %5, i64 3
  %47 = load i8, ptr %46, align 1
  %48 = zext i8 %47 to i32
  %49 = shl nuw nsw i32 %48, 16
  %50 = or disjoint i32 %49, %45
  %51 = getelementptr inbounds i8, ptr %5, i64 4
  %52 = load i8, ptr %51, align 1
  %53 = zext i8 %52 to i32
  %54 = shl nuw i32 %53, 24
  %55 = or disjoint i32 %54, %50
  store i32 %55, ptr %26, align 4
  br label %.thread

56:                                               ; preds = %34, %32
  %57 = load i64, ptr @H5E_OHDR_g, align 8
  %58 = load i64, ptr @H5E_OVERFLOW_g, align 8
  %59 = tail call i32 (ptr, ptr, i32, i64, i64, ptr, ...) @H5E_printf_stack(ptr noundef nonnull @.str.1, ptr noundef nonnull @__func__.H5O__refcount_decode, i32 noundef 107, i64 noundef %57, i64 noundef %58, ptr noundef nonnull @.str.2) #7
  %60 = tail call ptr @H5FL_reg_free(ptr noundef nonnull @H5_H5O_refcount_t_reg_free_list, ptr noundef nonnull %26) #7
  br label %.thread

.thread:                                          ; preds = %28, %21, %14, %38, %56
  %.041 = phi ptr [ null, %56 ], [ %26, %38 ], [ null, %28 ], [ null, %21 ], [ null, %14 ]
  ret ptr %.041
}